target datalayout = "e-m:e-p270:32:32-p271:32:32-p272:64:64-i64:64-i128:128-f80:128-n8:16:32:64-S128"
target triple = "x86_64-pc-linux-gnu"

%class.JfrCheckpointManager = type { ptr, ptr, ptr, ptr }

; Function Attrs: mustprogress nounwind uwtable
define hidden noundef zeroext i1 @_ZN20JfrCheckpointManager10initializeEP14JfrChunkWriter(ptr noundef nonnull align 8 dereferenceable(32) %0, ptr noundef %1) #1 align 2 {
  %3 = alloca ptr, align 8
  %4 = alloca ptr, align 8
  store ptr %0, ptr %3, align 8
  store ptr %1, ptr %4, align 8
  %5 = load ptr, ptr %3, align 8
  %6 = load ptr, ptr %4, align 8
  %7 = getelementptr inbounds %class.JfrCheckpointManager, ptr %5, i32 0, i32 3
  store ptr %6, ptr %7, align 8
  %8 = call noundef zeroext i1 @_ZN14JfrTypeManager10initializeEv()
  br i1 %8, label %9, label %11

9:                                                ; preds = %2
  %10 = call noundef zeroext i1 @_ZN21JfrTraceIdLoadBarrier10initializeEv()
  br label %11

11:                                               ; preds = %9, %2
  %12 = phi i1 [ false, %2 ], [ %10, %9 ]
  ret i1 %12
}