; Function Attrs: mustprogress nounwind uwtable
define hidden noundef zeroext i1 @_ZN20JfrCheckpointManager10initializeEP14JfrChunkWriter(ptr nocapture noundef nonnull writeonly align 8 dereferenceable(32) %0, ptr noundef %1) local_unnamed_addr #1 align 2 {
  %3 = getelementptr inbounds i8, ptr %0, i64 24
  store ptr %1, ptr %3, align 8
  %4 = tail call noundef zeroext i1 @_ZN14JfrTypeManager10initializeEv() #20
  br i1 %4, label %5, label %7

5:                                                ; preds = %2
  %6 = tail call noundef zeroext i1 @_ZN21JfrTraceIdLoadBarrier10initializeEv() #20
  br label %7

7:                                                ; preds = %5, %2
  %8 = phi i1 [ false, %2 ], [ %6, %5 ]
  ret i1 %8
}